target datalayout = "e-m:e-p270:32:32-p271:32:32-p272:64:64-i64:64-i128:128-f80:128-n8:16:32:64-S128"
target triple = "x86_64-pc-linux-gnu"

%struct.ossl_quic_frame_crypto_st = type { i64, i64, ptr }

; Function Attrs: inlinehint nounwind uwtable
define internal i64 @ossl_quic_vlint_encode_len(i64 noundef %0) #3 {
  %2 = alloca i64, align 8
  %3 = alloca i64, align 8
  store i64 %0, ptr %3, align 8, !tbaa !8
  %4 = load i64, ptr %3, align 8, !tbaa !8
  %5 = icmp ult i64 %4, 64
  br i1 %5, label %6, label %7

6:                                                ; preds = %1
  store i64 1, ptr %2, align 8
  br label %20

7:                                                ; preds = %1
  %8 = load i64, ptr %3, align 8, !tbaa !8
  %9 = icmp ult i64 %8, 16384
  br i1 %9, label %10, label %11

10:                                               ; preds = %7
  store i64 2, ptr %2, align 8
  br label %20

11:                                               ; preds = %7
  %12 = load i64, ptr %3, align 8, !tbaa !8
  %13 = icmp ult i64 %12, 1073741824
  br i1 %13, label %14, label %15

14:                                               ; preds = %11
  store i64 4, ptr %2, align 8
  br label %20

15:                                               ; preds = %11
  %16 = load i64, ptr %3, align 8, !tbaa !8
  %17 = icmp ule i64 %16, 4611686018427387903
  br i1 %17, label %18, label %19

18:                                               ; preds = %15
  store i64 8, ptr %2, align 8
  br label %20

19:                                               ; preds = %15
  store i64 0, ptr %2, align 8
  br label %20

20:                                               ; preds = %19, %18, %14, %10, %6
  %21 = load i64, ptr %2, align 8
  ret i64 %21
}

; Function Attrs: nounwind uwtable
define i64 @ossl_quic_wire_get_encoded_frame_len_crypto_hdr(ptr noundef %0) #0 {
  %2 = alloca i64, align 8
  %3 = alloca ptr, align 8
  %4 = alloca i64, align 8
  %5 = alloca i64, align 8
  %6 = alloca i64, align 8
  %7 = alloca i32, align 4
  store ptr %0, ptr %3, align 8, !tbaa !41
  call void @llvm.lifetime.start.p0(i64 8, ptr %4) #7
  call void @llvm.lifetime.start.p0(i64 8, ptr %5) #7
  call void @llvm.lifetime.start.p0(i64 8, ptr %6) #7
  %8 = call i64 @ossl_quic_vlint_encode_len(i64 noundef 6)
  store i64 %8, ptr %4, align 8, !tbaa !8
  %9 = load ptr, ptr %3, align 8, !tbaa !41
  %10 = getelementptr inbounds nuw %struct.ossl_quic_frame_crypto_st, ptr %9, i32 0, i32 0
  %11 = load i64, ptr %10, align 8, !tbaa !43
  %12 = call i64 @ossl_quic_vlint_encode_len(i64 noundef %11)
  store i64 %12, ptr %5, align 8, !tbaa !8
  %13 = load ptr, ptr %3, align 8, !tbaa !41
  %14 = getelementptr inbounds nuw %struct.ossl_quic_frame_crypto_st, ptr %13, i32 0, i32 1
  %15 = load i64, ptr %14, align 8, !tbaa !46
  %16 = call i64 @ossl_quic_vlint_encode_len(i64 noundef %15)
  store i64 %16, ptr %6, align 8, !tbaa !8
  %17 = load i64, ptr %4, align 8, !tbaa !8
  %18 = icmp eq i64 %17, 0
  br i1 %18, label %25, label %19

19:                                               ; preds = %1
  %20 = load i64, ptr %5, align 8, !tbaa !8
  %21 = icmp eq i64 %20, 0
  br i1 %21, label %25, label %22

22:                                               ; preds = %19
  %23 = load i64, ptr %6, align 8, !tbaa !8
  %24 = icmp eq i64 %23, 0
  br i1 %24, label %25, label %26

25:                                               ; preds = %22, %19, %1
  store i64 0, ptr %2, align 8
  store i32 1, ptr %7, align 4
  br label %32

26:                                               ; preds = %22
  %27 = load i64, ptr %4, align 8, !tbaa !8
  %28 = load i64, ptr %5, align 8, !tbaa !8
  %29 = add i64 %27, %28
  %30 = load i64, ptr %6, align 8, !tbaa !8
  %31 = add i64 %29, %30
  store i64 %31, ptr %2, align 8
  store i32 1, ptr %7, align 4
  br label %32

32:                                               ; preds = %26, %25
  call void @llvm.lifetime.end.p0(i64 8, ptr %6) #7
  call void @llvm.lifetime.end.p0(i64 8, ptr %5) #7
  call void @llvm.lifetime.end.p0(i64 8, ptr %4) #7
  %33 = load i64, ptr %2, align 8
  ret i64 %33
}