; Function Attrs: mustprogress nofree norecurse nosync nounwind willreturn memory(argmem: read) uwtable
define range(i64 0, 18) i64 @ossl_quic_wire_get_encoded_frame_len_crypto_hdr(ptr noundef readonly captures(none) %0) local_unnamed_addr #5 {
  %2 = load i64, ptr %0, align 8, !tbaa !29
  %3 = icmp ult i64 %2, 64
  br i1 %3, label %ossl_quic_vlint_encode_len.exit, label %4

4:                                                ; preds = %1
  %5 = icmp ult i64 %2, 16384
  br i1 %5, label %ossl_quic_vlint_encode_len.exit, label %6

6:                                                ; preds = %4
  %7 = icmp ult i64 %2, 1073741824
  br i1 %7, label %ossl_quic_vlint_encode_len.exit, label %8

8:                                                ; preds = %6
  %9 = icmp ult i64 %2, 4611686018427387904
  %..i = select i1 %9, i64 8, i64 0
  br label %ossl_quic_vlint_encode_len.exit

ossl_quic_vlint_encode_len.exit:                  ; preds = %1, %4, %6, %8
  %.0.i = phi i64 [ 1, %1 ], [ 2, %4 ], [ 4, %6 ], [ %..i, %8 ]
  %10 = getelementptr inbounds nuw i8, ptr %0, i64 8
  %11 = load i64, ptr %10, align 8, !tbaa !32
  %12 = icmp ult i64 %11, 64
  br i1 %12, label %ossl_quic_vlint_encode_len.exit16, label %13

13:                                               ; preds = %ossl_quic_vlint_encode_len.exit
  %14 = icmp ult i64 %11, 16384
  br i1 %14, label %ossl_quic_vlint_encode_len.exit16, label %15

15:                                               ; preds = %13
  %16 = icmp ult i64 %11, 1073741824
  br i1 %16, label %ossl_quic_vlint_encode_len.exit16, label %17

17:                                               ; preds = %15
  %18 = icmp ult i64 %11, 4611686018427387904
  %..i14 = select i1 %18, i64 8, i64 0
  br label %ossl_quic_vlint_encode_len.exit16

ossl_quic_vlint_encode_len.exit16:                ; preds = %ossl_quic_vlint_encode_len.exit, %13, %15, %17
  %.0.i15 = phi i64 [ 1, %ossl_quic_vlint_encode_len.exit ], [ 2, %13 ], [ 4, %15 ], [ %..i14, %17 ]
  %19 = icmp eq i64 %.0.i, 0
  %20 = icmp eq i64 %.0.i15, 0
  %or.cond3 = or i1 %19, %20
  %21 = add nuw nsw i64 %.0.i, 1
  %22 = add nuw nsw i64 %21, %.0.i15
  %.0 = select i1 %or.cond3, i64 0, i64 %22
  ret i64 %.0
}